; ModuleID = '34/412.c'
source_filename = "34/412.c"
target datalayout = "e-m:e-p270:32:32-p271:32:32-p272:64:64-i64:64-f80:128-n8:16:32:64-S128"
target triple = "x86_64-pc-linux-gnu"

@.str = private unnamed_addr constant [3 x i8] c"%d\00", align 1
@.str.1 = private unnamed_addr constant [5 x i8] c"End\0A\00", align 1
@.str.2 = private unnamed_addr constant [9 x i8] c"%d/2=%d\0A\00", align 1
@.str.3 = private unnamed_addr constant [11 x i8] c"%d*3+1=%d\0A\00", align 1

; Function Attrs: noinline nounwind uwtable
define dso_local i32 @main() #0 {
  %1 = alloca i32, align 4
  %2 = alloca i32, align 4
  %3 = alloca i32, align 4
  %4 = alloca i32, align 4
  store i32 0, i32* %1, align 4
  %5 = call i32 (i8*, ...) @__isoc99_scanf(i8* getelementptr inbounds ([3 x i8], [3 x i8]* @.str, i64 0, i64 0), i32* %2)
  store i32 1, i32* %3, align 4
  br label %6

6:                                                ; preds = %47, %0
  %7 = load i32, i32* %2, align 4
  %8 = icmp eq i32 %7, 1
  br i1 %8, label %9, label %11

9:                                                ; preds = %6
  %10 = call i32 (i8*, ...) @printf(i8* getelementptr inbounds ([5 x i8], [5 x i8]* @.str.1, i64 0, i64 0))
  br label %50

11:                                               ; preds = %6
  %12 = load i32, i32* %2, align 4
  %13 = srem i32 %12, 2
  %14 = icmp eq i32 %13, 0
  br i1 %14, label %15, label %28

15:                                               ; preds = %11
  %16 = load i32, i32* %2, align 4
  %17 = sdiv i32 %16, 2
  store i32 %17, i32* %4, align 4
  %18 = load i32, i32* %2, align 4
  %19 = load i32, i32* %4, align 4
  %20 = call i32 (i8*, ...) @printf(i8* getelementptr inbounds ([9 x i8], [9 x i8]* @.str.2, i64 0, i64 0), i32 %18, i32 %19)
  %21 = load i32, i32* %4, align 4
  %22 = icmp eq i32 %21, 1
  br i1 %22, label %23, label %25

23:                                               ; preds = %15
  %24 = call i32 (i8*, ...) @printf(i8* getelementptr inbounds ([5 x i8], [5 x i8]* @.str.1, i64 0, i64 0))
  br label %50

25:                                               ; preds = %15
  %26 = load i32, i32* %4, align 4
  store i32 %26, i32* %2, align 4
  br label %27

27:                                               ; preds = %25
  br label %28

28:                                               ; preds = %27, %11
  %29 = load i32, i32* %2, align 4
  %30 = srem i32 %29, 2
  %31 = icmp ne i32 %30, 0
  br i1 %31, label %32, label %46

32:                                               ; preds = %28
  %33 = load i32, i32* %2, align 4
  %34 = mul nsw i32 %33, 3
  %35 = add nsw i32 %34, 1
  store i32 %35, i32* %4, align 4
  %36 = load i32, i32* %2, align 4
  %37 = load i32, i32* %4, align 4
  %38 = call i32 (i8*, ...) @printf(i8* getelementptr inbounds ([11 x i8], [11 x i8]* @.str.3, i64 0, i64 0), i32 %36, i32 %37)
  %39 = load i32, i32* %4, align 4
  %40 = icmp eq i32 %39, 1
  br i1 %40, label %41, label %43

41:                                               ; preds = %32
  %42 = call i32 (i8*, ...) @printf(i8* getelementptr inbounds ([5 x i8], [5 x i8]* @.str.1, i64 0, i64 0))
  br label %50

43:                                               ; preds = %32
  %44 = load i32, i32* %4, align 4
  store i32 %44, i32* %2, align 4
  br label %45

45:                                               ; preds = %43
  br label %46

46:                                               ; preds = %45, %28
  br label %47

47:                                               ; preds = %46
  %48 = load i32, i32* %3, align 4
  %49 = add nsw i32 %48, 1
  store i32 %49, i32* %3, align 4
  br label %6

50:                                               ; preds = %41, %23, %9
  ret i32 0
}

declare dso_local i32 @__isoc99_scanf(i8*, ...) #1

declare dso_local i32 @printf(i8*, ...) #1


!llvm.module.flags = !{!0}
!llvm.ident = !{!1}

!0 = !{i32 1, !"wchar_size", i32 4}
!1 = !{!"clang version 10.0.0-4ubuntu1 "}
