; ModuleID = 'source-C-CXX/33/412.c'
source_filename = "source-C-CXX/33/412.c"
target datalayout = "e-m:e-p270:32:32-p271:32:32-p272:64:64-i64:64-f80:128-n8:16:32:64-S128"
target triple = "x86_64-pc-linux-gnu"

@.str = private unnamed_addr constant [3 x i8] c"%d\00", align 1
@.str.2 = private unnamed_addr constant [9 x i8] c"%d/2=%d\0A\00", align 1
@.str.3 = private unnamed_addr constant [11 x i8] c"%d*3+1=%d\0A\00", align 1
@str.5 = private unnamed_addr constant [4 x i8] c"End\00", align 1

; Function Attrs: nofree nounwind sspstrong uwtable
define dso_local i32 @main() local_unnamed_addr #0 {
  %1 = alloca i32, align 4
  %2 = bitcast i32* %1 to i8*
  call void @llvm.lifetime.start.p0i8(i64 4, i8* nonnull %2) #4
  %3 = call i32 (i8*, ...) @__isoc99_scanf(i8* getelementptr inbounds ([3 x i8], [3 x i8]* @.str, i64 0, i64 0), i32* nonnull %1)
  %4 = load i32, i32* %1, align 4, !tbaa !5
  %5 = icmp eq i32 %4, 1
  br i1 %5, label %26, label %6

6:                                                ; preds = %0, %23
  %7 = phi i32 [ %24, %23 ], [ %4, %0 ]
  %8 = and i32 %7, 1
  %9 = icmp eq i32 %8, 0
  br i1 %9, label %10, label %18

10:                                               ; preds = %6
  %11 = sdiv i32 %7, 2
  %12 = call i32 (i8*, ...) @printf(i8* nonnull dereferenceable(1) getelementptr inbounds ([9 x i8], [9 x i8]* @.str.2, i64 0, i64 0), i32 %7, i32 %11)
  %13 = and i32 %7, -2
  %14 = icmp eq i32 %13, 2
  br i1 %14, label %26, label %15

15:                                               ; preds = %10
  store i32 %11, i32* %1, align 4, !tbaa !5
  %16 = and i32 %11, 1
  %17 = icmp eq i32 %16, 0
  br i1 %17, label %23, label %18

18:                                               ; preds = %6, %15
  %19 = phi i32 [ %11, %15 ], [ %7, %6 ]
  %20 = mul nsw i32 %19, 3
  %21 = add nsw i32 %20, 1
  %22 = call i32 (i8*, ...) @printf(i8* nonnull dereferenceable(1) getelementptr inbounds ([11 x i8], [11 x i8]* @.str.3, i64 0, i64 0), i32 %19, i32 %21)
  store i32 %21, i32* %1, align 4, !tbaa !5
  br label %23

23:                                               ; preds = %15, %18
  %24 = phi i32 [ %11, %15 ], [ %21, %18 ]
  %25 = icmp eq i32 %24, 1
  br i1 %25, label %26, label %6

26:                                               ; preds = %10, %23, %0
  %27 = phi i8* [ getelementptr inbounds ([4 x i8], [4 x i8]* @str.5, i64 0, i64 0), %0 ], [ getelementptr inbounds ([4 x i8], [4 x i8]* @str.5, i64 0, i64 0), %23 ], [ getelementptr inbounds ([4 x i8], [4 x i8]* @str.5, i64 0, i64 0), %10 ]
  %28 = call i32 @puts(i8* nonnull dereferenceable(1) %27)
  call void @llvm.lifetime.end.p0i8(i64 4, i8* nonnull %2) #4
  ret i32 0
}

; Function Attrs: argmemonly mustprogress nofree nosync nounwind willreturn
declare void @llvm.lifetime.start.p0i8(i64 immarg, i8* nocapture) #1

; Function Attrs: nofree nounwind
declare noundef i32 @__isoc99_scanf(i8* nocapture noundef readonly, ...) local_unnamed_addr #2

; Function Attrs: nofree nounwind
declare noundef i32 @printf(i8* nocapture noundef readonly, ...) local_unnamed_addr #2

; Function Attrs: argmemonly mustprogress nofree nosync nounwind willreturn
declare void @llvm.lifetime.end.p0i8(i64 immarg, i8* nocapture) #1

; Function Attrs: nofree nounwind
declare noundef i32 @puts(i8* nocapture noundef readonly) local_unnamed_addr #3


!llvm.module.flags = !{!0, !1, !2, !3}
!llvm.ident = !{!4}

!0 = !{i32 1, !"wchar_size", i32 4}
!1 = !{i32 7, !"PIC Level", i32 2}
!2 = !{i32 7, !"PIE Level", i32 2}
!3 = !{i32 7, !"uwtable", i32 1}
!4 = !{!"clang version 13.0.0"}
!5 = !{!6, !6, i64 0}
!6 = !{!"int", !7, i64 0}
!7 = !{!"omnipotent char", !8, i64 0}
!8 = !{!"Simple C/C++ TBAA"}
